; Function Attrs: mustprogress nounwind uwtable
define dso_local void @_ZN4node9inspector5Agent14ContextCreatedEN2v85LocalINS2_7ContextEEERKNS_11ContextInfoE(ptr nocapture noundef nonnull readonly align 8 dereferenceable(186) %this, ptr %context.coerce, ptr noundef nonnull align 8 dereferenceable(65) %info) local_unnamed_addr #3 align 2 {
entry:
  %client_ = getelementptr inbounds i8, ptr %this, i64 8
  %0 = load ptr, ptr %client_, align 8
  %cmp.i.not.i = icmp eq ptr %0, null
  br i1 %cmp.i.not.i, label %return, label %if.end

if.end:                                           ; preds = %entry
  tail call void @_ZN4node9inspector19NodeInspectorClient14contextCreatedEN2v85LocalINS2_7ContextEEERKNS_11ContextInfoE(ptr noundef nonnull align 8 dereferenceable(184) %0, ptr %context.coerce, ptr noundef nonnull align 8 dereferenceable(65) %info)
  br label %return

return:                                           ; preds = %entry, %if.end
  ret void
}